target datalayout = "e-m:e-p270:32:32-p271:32:32-p272:64:64-i64:64-i128:128-f80:128-n8:16:32:64-S128"
target triple = "x86_64-pc-linux-gnu"

%struct.ident_t = type { i32, i32, i32, i32, ptr }

@1 = private unnamed_addr constant %struct.ident_t { i32 0, i32 514, i32 0, i32 22, ptr @0 }, align 8

; Function Attrs: noinline norecurse nounwind uwtable
define internal void @_ZN5faiss13bitvecs2fvecsEPKhPfmm.omp_outlined(ptr noalias noundef %0, ptr noalias noundef %1, ptr noundef nonnull align 8 dereferenceable(8) %2, ptr noundef nonnull align 8 dereferenceable(8) %3, ptr noundef nonnull align 8 dereferenceable(8) %4, ptr noundef nonnull align 8 dereferenceable(8) %5, ptr noundef nonnull align 8 dereferenceable(8) %6) #6 personality ptr @__gxx_personality_v0 {
  %8 = alloca ptr, align 8
  %9 = alloca ptr, align 8
  %10 = alloca ptr, align 8
  %11 = alloca ptr, align 8
  %12 = alloca ptr, align 8
  %13 = alloca ptr, align 8
  %14 = alloca ptr, align 8
  %15 = alloca i64, align 8
  %16 = alloca i64, align 8
  %17 = alloca i64, align 8
  %18 = alloca i64, align 8
  %19 = alloca i64, align 8
  %20 = alloca i64, align 8
  %21 = alloca i64, align 8
  %22 = alloca i32, align 4
  %23 = alloca i64, align 8
  store ptr %0, ptr %8, align 8, !tbaa !11
  store ptr %1, ptr %9, align 8, !tbaa !11
  store ptr %2, ptr %10, align 8, !tbaa !4
  store ptr %3, ptr %11, align 8, !tbaa !4
  store ptr %4, ptr %12, align 8, !tbaa !30
  store ptr %5, ptr %13, align 8, !tbaa !4
  store ptr %6, ptr %14, align 8, !tbaa !28
  %24 = load ptr, ptr %10, align 8, !tbaa !4
  %25 = load ptr, ptr %11, align 8, !tbaa !4
  %26 = load ptr, ptr %12, align 8, !tbaa !30
  %27 = load ptr, ptr %13, align 8, !tbaa !4
  %28 = load ptr, ptr %14, align 8, !tbaa !28
  call void @llvm.lifetime.start.p0(i64 8, ptr %15) #7
  call void @llvm.lifetime.start.p0(i64 8, ptr %16) #7
  %29 = load i64, ptr %24, align 8, !tbaa !9
  store i64 %29, ptr %16, align 8, !tbaa !9
  call void @llvm.lifetime.start.p0(i64 8, ptr %17) #7
  %30 = load i64, ptr %16, align 8, !tbaa !9
  %31 = sub i64 %30, 0
  %32 = udiv i64 %31, 1
  %33 = sub i64 %32, 1
  store i64 %33, ptr %17, align 8, !tbaa !9
  call void @llvm.lifetime.start.p0(i64 8, ptr %18) #7
  store i64 0, ptr %18, align 8, !tbaa !9
  call void @llvm.lifetime.end.p0(i64 8, ptr %18) #7
  %34 = load i64, ptr %16, align 8, !tbaa !9
  %35 = icmp ult i64 0, %34
  br i1 %35, label %36, label %80

36:                                               ; preds = %7
  call void @llvm.lifetime.start.p0(i64 8, ptr %19) #7
  store i64 0, ptr %19, align 8, !tbaa !9
  call void @llvm.lifetime.start.p0(i64 8, ptr %20) #7
  %37 = load i64, ptr %17, align 8, !tbaa !9
  store i64 %37, ptr %20, align 8, !tbaa !9
  call void @llvm.lifetime.start.p0(i64 8, ptr %21) #7
  store i64 1, ptr %21, align 8, !tbaa !9
  call void @llvm.lifetime.start.p0(i64 4, ptr %22) #7
  store i32 0, ptr %22, align 4, !tbaa !13
  call void @llvm.lifetime.start.p0(i64 8, ptr %23) #7
  %38 = load ptr, ptr %8, align 8
  %39 = load i32, ptr %38, align 4, !tbaa !13
  call void @__kmpc_for_static_init_8u(ptr @1, i32 %39, i32 34, ptr %22, ptr %19, ptr %20, ptr %21, i64 1, i64 1)
  %40 = load i64, ptr %20, align 8, !tbaa !9
  %41 = load i64, ptr %17, align 8, !tbaa !9
  %42 = icmp ugt i64 %40, %41
  br i1 %42, label %43, label %45

43:                                               ; preds = %36
  %44 = load i64, ptr %17, align 8, !tbaa !9
  br label %47

45:                                               ; preds = %36
  %46 = load i64, ptr %20, align 8, !tbaa !9
  br label %47

47:                                               ; preds = %45, %43
  %48 = phi i64 [ %44, %43 ], [ %46, %45 ]
  store i64 %48, ptr %20, align 8, !tbaa !9
  %49 = load i64, ptr %19, align 8, !tbaa !9
  store i64 %49, ptr %15, align 8, !tbaa !9
  br label %50

50:                                               ; preds = %73, %47
  %51 = load i64, ptr %15, align 8, !tbaa !9
  %52 = load i64, ptr %20, align 8, !tbaa !9
  %53 = add i64 %52, 1
  %54 = icmp ult i64 %51, %53
  br i1 %54, label %56, label %55

55:                                               ; preds = %50
  br label %76

56:                                               ; preds = %50
  %57 = load i64, ptr %15, align 8, !tbaa !9
  %58 = mul i64 %57, 1
  %59 = add i64 0, %58
  store i64 %59, ptr %23, align 8, !tbaa !9
  %60 = load i64, ptr %25, align 8, !tbaa !9
  %61 = load ptr, ptr %26, align 8, !tbaa !21
  %62 = load i64, ptr %23, align 8, !tbaa !9
  %63 = load i64, ptr %27, align 8, !tbaa !9
  %64 = mul nsw i64 %62, %63
  %65 = getelementptr inbounds i8, ptr %61, i64 %64
  %66 = load ptr, ptr %28, align 8, !tbaa !19
  %67 = load i64, ptr %23, align 8, !tbaa !9
  %68 = load i64, ptr %25, align 8, !tbaa !9
  %69 = mul i64 %67, %68
  %70 = getelementptr inbounds nuw float, ptr %66, i64 %69
  invoke void @_ZN5faiss14binary_to_realEmPKhPf(i64 noundef %60, ptr noundef %65, ptr noundef %70)
          to label %71 unwind label %81

71:                                               ; preds = %56
  br label %72

72:                                               ; preds = %71
  br label %73

73:                                               ; preds = %72
  %74 = load i64, ptr %15, align 8, !tbaa !9
  %75 = add i64 %74, 1
  store i64 %75, ptr %15, align 8, !tbaa !9
  br label %50

76:                                               ; preds = %55
  br label %77

77:                                               ; preds = %76
  %78 = load ptr, ptr %8, align 8
  %79 = load i32, ptr %78, align 4, !tbaa !13
  call void @__kmpc_for_static_fini(ptr @1, i32 %79)
  call void @llvm.lifetime.end.p0(i64 8, ptr %23) #7
  call void @llvm.lifetime.end.p0(i64 4, ptr %22) #7
  call void @llvm.lifetime.end.p0(i64 8, ptr %21) #7
  call void @llvm.lifetime.end.p0(i64 8, ptr %20) #7
  call void @llvm.lifetime.end.p0(i64 8, ptr %19) #7
  br label %80

80:                                               ; preds = %77, %7
  call void @llvm.lifetime.end.p0(i64 8, ptr %17) #7
  call void @llvm.lifetime.end.p0(i64 8, ptr %16) #7
  call void @llvm.lifetime.end.p0(i64 8, ptr %15) #7
  ret void

81:                                               ; preds = %56
  %82 = landingpad { ptr, i32 }
          catch ptr null
  %83 = extractvalue { ptr, i32 } %82, 0
  call void @__clang_call_terminate(ptr %83) #20
  unreachable
}