; Function Attrs: noinline norecurse nounwind uwtable
define internal void @_ZN5faiss13bitvecs2fvecsEPKhPfmm.omp_outlined(ptr noalias noundef readonly captures(none) %0, ptr noalias readnone captures(none) %1, ptr noundef nonnull readonly align 8 captures(none) dereferenceable(8) %2, ptr noundef nonnull readonly align 8 captures(none) dereferenceable(8) %3, ptr noundef nonnull readonly align 8 captures(none) dereferenceable(8) %4, ptr noundef nonnull readonly align 8 captures(none) dereferenceable(8) %5, ptr noundef nonnull readonly align 8 captures(none) dereferenceable(8) %6) #4 personality ptr @__gxx_personality_v0 {
  %8 = alloca i64, align 8
  %9 = alloca i64, align 8
  %10 = alloca i64, align 8
  %11 = alloca i32, align 4
  %12 = load i64, ptr %2, align 8, !tbaa !4
  %.not = icmp eq i64 %12, 0
  br i1 %.not, label %32, label %13

13:                                               ; preds = %7
  %14 = add i64 %12, -1
  call void @llvm.lifetime.start.p0(i64 8, ptr nonnull %8) #5
  store i64 0, ptr %8, align 8, !tbaa !4
  call void @llvm.lifetime.start.p0(i64 8, ptr nonnull %9) #5
  store i64 %14, ptr %9, align 8, !tbaa !4
  call void @llvm.lifetime.start.p0(i64 8, ptr nonnull %10) #5
  store i64 1, ptr %10, align 8, !tbaa !4
  call void @llvm.lifetime.start.p0(i64 4, ptr nonnull %11) #5
  store i32 0, ptr %11, align 4, !tbaa !10
  %15 = load i32, ptr %0, align 4, !tbaa !10
  call void @__kmpc_for_static_init_8u(ptr nonnull @1, i32 %15, i32 34, ptr nonnull %11, ptr nonnull %8, ptr nonnull %9, ptr nonnull %10, i64 1, i64 1)
  %16 = load i64, ptr %9, align 8, !tbaa !4
  %17 = call i64 @llvm.umin.i64(i64 %16, i64 %14)
  store i64 %17, ptr %9, align 8, !tbaa !4
  %18 = load i64, ptr %8, align 8, !tbaa !4
  %.not17 = icmp ugt i64 %18, %17
  br i1 %.not17, label %._crit_edge, label %.lr.ph

.lr.ph:                                           ; preds = %13, %27
  %.016 = phi i64 [ %28, %27 ], [ %18, %13 ]
  %19 = load i64, ptr %3, align 8, !tbaa !4
  %20 = load ptr, ptr %4, align 8, !tbaa !22
  %21 = load i64, ptr %5, align 8, !tbaa !4
  %22 = mul nsw i64 %21, %.016
  %23 = getelementptr inbounds i8, ptr %20, i64 %22
  %24 = load ptr, ptr %6, align 8, !tbaa !19
  %25 = mul i64 %19, %.016
  %26 = getelementptr inbounds nuw float, ptr %24, i64 %25
  invoke void @_ZN5faiss14binary_to_realEmPKhPf(i64 noundef %19, ptr noundef %23, ptr noundef %26)
          to label %27 unwind label %33

27:                                               ; preds = %.lr.ph
  %28 = add nuw i64 %.016, 1
  %29 = load i64, ptr %9, align 8, !tbaa !4
  %30 = add i64 %29, 1
  %31 = icmp ult i64 %28, %30
  br i1 %31, label %.lr.ph, label %._crit_edge

._crit_edge:                                      ; preds = %27, %13
  call void @__kmpc_for_static_fini(ptr nonnull @1, i32 %15)
  call void @llvm.lifetime.end.p0(i64 4, ptr nonnull %11) #5
  call void @llvm.lifetime.end.p0(i64 8, ptr nonnull %10) #5
  call void @llvm.lifetime.end.p0(i64 8, ptr nonnull %9) #5
  call void @llvm.lifetime.end.p0(i64 8, ptr nonnull %8) #5
  br label %32

32:                                               ; preds = %._crit_edge, %7
  ret void

33:                                               ; preds = %.lr.ph
  %34 = landingpad { ptr, i32 }
          catch ptr null
  %35 = extractvalue { ptr, i32 } %34, 0
  call void @__clang_call_terminate(ptr %35) #26
  unreachable
}